target datalayout = "e-m:e-p270:32:32-p271:32:32-p272:64:64-i64:64-i128:128-f80:128-n8:16:32:64-S128"
target triple = "x86_64-pc-linux-gnu"

%struct.extra_esp_sa_records_t = type { i32, ptr }
%struct.uat_esp_sa_record_t = type { i8, ptr, ptr, ptr, i8, ptr, ptr, i32, i8, ptr, i8, ptr, ptr, i32, i8, i32 }

@extra_esp_sa_records = internal global %struct.extra_esp_sa_records_t zeroinitializer, align 8
@.str = private unnamed_addr constant [76 x i8] c"<IPsec/ESP Dissector> Failed to add UE as already have max (%d) configured\0A\00", align 1

; Function Attrs: null_pointer_is_valid sspstrong uwtable
define internal zeroext i1 @uat_esp_sa_record_update_cb(ptr noundef %0, ptr noundef %1) #0 {
  %3 = alloca ptr, align 8
  %4 = alloca ptr, align 8
  %5 = alloca ptr, align 8
  store ptr %0, ptr %3, align 8
  store ptr %1, ptr %4, align 8
  call void @llvm.lifetime.start.p0(i64 8, ptr %5) #17
  %6 = load ptr, ptr %3, align 8
  store ptr %6, ptr %5, align 8
  %7 = load ptr, ptr %5, align 8
  %8 = getelementptr inbounds nuw %struct.uat_esp_sa_record_t, ptr %7, i32 0, i32 6
  %9 = load ptr, ptr %8, align 8
  call void @g_free(ptr noundef %9)
  %10 = load ptr, ptr %5, align 8
  %11 = getelementptr inbounds nuw %struct.uat_esp_sa_record_t, ptr %10, i32 0, i32 8
  %12 = load i8, ptr %11, align 4, !range !6, !noundef !7
  %13 = trunc i8 %12 to i1
  br i1 %13, label %14, label %20

14:                                               ; preds = %2
  %15 = load ptr, ptr %5, align 8
  %16 = getelementptr inbounds nuw %struct.uat_esp_sa_record_t, ptr %15, i32 0, i32 9
  %17 = load ptr, ptr %16, align 8
  call void @gcry_cipher_close(ptr noundef %17)
  %18 = load ptr, ptr %5, align 8
  %19 = getelementptr inbounds nuw %struct.uat_esp_sa_record_t, ptr %18, i32 0, i32 8
  store i8 0, ptr %19, align 4
  br label %20

20:                                               ; preds = %14, %2
  %21 = load ptr, ptr %5, align 8
  %22 = getelementptr inbounds nuw %struct.uat_esp_sa_record_t, ptr %21, i32 0, i32 5
  %23 = load ptr, ptr %22, align 8
  %24 = icmp ne ptr %23, null
  br i1 %24, label %25, label %35

25:                                               ; preds = %20
  %26 = load ptr, ptr %5, align 8
  %27 = getelementptr inbounds nuw %struct.uat_esp_sa_record_t, ptr %26, i32 0, i32 6
  %28 = load ptr, ptr %5, align 8
  %29 = getelementptr inbounds nuw %struct.uat_esp_sa_record_t, ptr %28, i32 0, i32 5
  %30 = load ptr, ptr %29, align 8
  %31 = load ptr, ptr %4, align 8
  %32 = call i32 @compute_ascii_key(ptr noundef %27, ptr noundef %30, ptr noundef %31)
  %33 = load ptr, ptr %5, align 8
  %34 = getelementptr inbounds nuw %struct.uat_esp_sa_record_t, ptr %33, i32 0, i32 7
  store i32 %32, ptr %34, align 8
  br label %40

35:                                               ; preds = %20
  %36 = load ptr, ptr %5, align 8
  %37 = getelementptr inbounds nuw %struct.uat_esp_sa_record_t, ptr %36, i32 0, i32 7
  store i32 0, ptr %37, align 8
  %38 = load ptr, ptr %5, align 8
  %39 = getelementptr inbounds nuw %struct.uat_esp_sa_record_t, ptr %38, i32 0, i32 6
  store ptr null, ptr %39, align 8
  br label %40

40:                                               ; preds = %35, %25
  %41 = load ptr, ptr %5, align 8
  %42 = getelementptr inbounds nuw %struct.uat_esp_sa_record_t, ptr %41, i32 0, i32 12
  %43 = load ptr, ptr %42, align 8
  call void @g_free(ptr noundef %43)
  %44 = load ptr, ptr %5, align 8
  %45 = getelementptr inbounds nuw %struct.uat_esp_sa_record_t, ptr %44, i32 0, i32 11
  %46 = load ptr, ptr %45, align 8
  %47 = icmp ne ptr %46, null
  br i1 %47, label %48, label %58

48:                                               ; preds = %40
  %49 = load ptr, ptr %5, align 8
  %50 = getelementptr inbounds nuw %struct.uat_esp_sa_record_t, ptr %49, i32 0, i32 12
  %51 = load ptr, ptr %5, align 8
  %52 = getelementptr inbounds nuw %struct.uat_esp_sa_record_t, ptr %51, i32 0, i32 11
  %53 = load ptr, ptr %52, align 8
  %54 = load ptr, ptr %4, align 8
  %55 = call i32 @compute_ascii_key(ptr noundef %50, ptr noundef %53, ptr noundef %54)
  %56 = load ptr, ptr %5, align 8
  %57 = getelementptr inbounds nuw %struct.uat_esp_sa_record_t, ptr %56, i32 0, i32 13
  store i32 %55, ptr %57, align 8
  br label %63

58:                                               ; preds = %40
  %59 = load ptr, ptr %5, align 8
  %60 = getelementptr inbounds nuw %struct.uat_esp_sa_record_t, ptr %59, i32 0, i32 13
  store i32 0, ptr %60, align 8
  %61 = load ptr, ptr %5, align 8
  %62 = getelementptr inbounds nuw %struct.uat_esp_sa_record_t, ptr %61, i32 0, i32 12
  store ptr null, ptr %62, align 8
  br label %63

63:                                               ; preds = %58, %48
  %64 = load ptr, ptr %4, align 8
  %65 = load ptr, ptr %64, align 8
  %66 = icmp eq ptr %65, null
  call void @llvm.lifetime.end.p0(i64 8, ptr %5) #17
  ret i1 %66
}

; Function Attrs: null_pointer_is_valid sspstrong uwtable
define void @esp_sa_record_add_from_dissector(i8 noundef zeroext %0, ptr noundef %1, ptr noundef %2, ptr noundef %3, i8 noundef zeroext %4, ptr noundef %5, i8 noundef zeroext %6, ptr noundef %7) #0 {
  %9 = alloca i8, align 1
  %10 = alloca ptr, align 8
  %11 = alloca ptr, align 8
  %12 = alloca ptr, align 8
  %13 = alloca i8, align 1
  %14 = alloca ptr, align 8
  %15 = alloca i8, align 1
  %16 = alloca ptr, align 8
  %17 = alloca ptr, align 8
  %18 = alloca i64, align 8
  %19 = alloca i64, align 8
  %20 = alloca ptr, align 8
  %21 = alloca ptr, align 8
  %22 = alloca ptr, align 8
  store i8 %0, ptr %9, align 1
  store ptr %1, ptr %10, align 8
  store ptr %2, ptr %11, align 8
  store ptr %3, ptr %12, align 8
  store i8 %4, ptr %13, align 1
  store ptr %5, ptr %14, align 8
  store i8 %6, ptr %15, align 1
  store ptr %7, ptr %16, align 8
  call void @llvm.lifetime.start.p0(i64 8, ptr %17) #17
  store ptr null, ptr %17, align 8
  %23 = load i32, ptr @extra_esp_sa_records, align 8
  %24 = icmp eq i32 %23, 0
  br i1 %24, label %25, label %55

25:                                               ; preds = %8
  call void @llvm.lifetime.start.p0(i64 8, ptr %18) #17
  store i64 16, ptr %18, align 8
  call void @llvm.lifetime.start.p0(i64 8, ptr %19) #17
  store i64 112, ptr %19, align 8
  call void @llvm.lifetime.start.p0(i64 8, ptr %20) #17
  %26 = load i64, ptr %19, align 8
  %27 = icmp eq i64 %26, 1
  br i1 %27, label %28, label %31

28:                                               ; preds = %25
  %29 = load i64, ptr %18, align 8
  %30 = call noalias ptr @g_malloc(i64 noundef %29) #18
  store ptr %30, ptr %20, align 8
  br label %52

31:                                               ; preds = %25
  %32 = load i64, ptr %18, align 8
  %33 = call i1 @llvm.is.constant.i64(i64 %32)
  br i1 %33, label %34, label %47

34:                                               ; preds = %31
  %35 = load i64, ptr %19, align 8
  %36 = icmp eq i64 %35, 0
  br i1 %36, label %42, label %37

37:                                               ; preds = %34
  %38 = load i64, ptr %18, align 8
  %39 = load i64, ptr %19, align 8
  %40 = udiv i64 -1, %39
  %41 = icmp ule i64 %38, %40
  br i1 %41, label %42, label %47

42:                                               ; preds = %37, %34
  %43 = load i64, ptr %18, align 8
  %44 = load i64, ptr %19, align 8
  %45 = mul i64 %43, %44
  %46 = call noalias ptr @g_malloc(i64 noundef %45) #18
  store ptr %46, ptr %20, align 8
  br label %51

47:                                               ; preds = %37, %31
  %48 = load i64, ptr %18, align 8
  %49 = load i64, ptr %19, align 8
  %50 = call noalias ptr @g_malloc_n(i64 noundef %48, i64 noundef %49) #19
  store ptr %50, ptr %20, align 8
  br label %51

51:                                               ; preds = %47, %42
  br label %52

52:                                               ; preds = %51, %28
  %53 = load ptr, ptr %20, align 8
  store ptr %53, ptr %21, align 8
  call void @llvm.lifetime.end.p0(i64 8, ptr %20) #17
  call void @llvm.lifetime.end.p0(i64 8, ptr %19) #17
  call void @llvm.lifetime.end.p0(i64 8, ptr %18) #17
  %54 = load ptr, ptr %21, align 8
  store ptr %54, ptr getelementptr inbounds nuw (%struct.extra_esp_sa_records_t, ptr @extra_esp_sa_records, i32 0, i32 1), align 8
  br label %55

55:                                               ; preds = %52, %8
  %56 = load i32, ptr @extra_esp_sa_records, align 8
  %57 = icmp ult i32 %56, 16
  br i1 %57, label %58, label %64

58:                                               ; preds = %55
  %59 = load ptr, ptr getelementptr inbounds nuw (%struct.extra_esp_sa_records_t, ptr @extra_esp_sa_records, i32 0, i32 1), align 8
  %60 = load i32, ptr @extra_esp_sa_records, align 8
  %61 = add i32 %60, 1
  store i32 %61, ptr @extra_esp_sa_records, align 8
  %62 = zext i32 %60 to i64
  %63 = getelementptr %struct.uat_esp_sa_record_t, ptr %59, i64 %62
  store ptr %63, ptr %17, align 8
  br label %65

64:                                               ; preds = %55
  call void (ptr, ...) @proto_report_dissector_bug(ptr noundef @.str, i32 noundef 16) #20
  unreachable

65:                                               ; preds = %58
  %66 = load i8, ptr %9, align 1
  %67 = load ptr, ptr %17, align 8
  %68 = getelementptr inbounds nuw %struct.uat_esp_sa_record_t, ptr %67, i32 0, i32 0
  store i8 %66, ptr %68, align 8
  %69 = load ptr, ptr %10, align 8
  %70 = call noalias ptr @g_strdup(ptr noundef %69)
  %71 = load ptr, ptr %17, align 8
  %72 = getelementptr inbounds nuw %struct.uat_esp_sa_record_t, ptr %71, i32 0, i32 1
  store ptr %70, ptr %72, align 8
  %73 = load ptr, ptr %11, align 8
  %74 = call noalias ptr @g_strdup(ptr noundef %73)
  %75 = load ptr, ptr %17, align 8
  %76 = getelementptr inbounds nuw %struct.uat_esp_sa_record_t, ptr %75, i32 0, i32 2
  store ptr %74, ptr %76, align 8
  %77 = load ptr, ptr %12, align 8
  %78 = call noalias ptr @g_strdup(ptr noundef %77)
  %79 = load ptr, ptr %17, align 8
  %80 = getelementptr inbounds nuw %struct.uat_esp_sa_record_t, ptr %79, i32 0, i32 3
  store ptr %78, ptr %80, align 8
  %81 = load i8, ptr %13, align 1
  %82 = load ptr, ptr %17, align 8
  %83 = getelementptr inbounds nuw %struct.uat_esp_sa_record_t, ptr %82, i32 0, i32 4
  store i8 %81, ptr %83, align 8
  %84 = load ptr, ptr %14, align 8
  %85 = call noalias ptr @g_strdup(ptr noundef %84)
  %86 = load ptr, ptr %17, align 8
  %87 = getelementptr inbounds nuw %struct.uat_esp_sa_record_t, ptr %86, i32 0, i32 5
  store ptr %85, ptr %87, align 8
  %88 = load ptr, ptr %17, align 8
  %89 = getelementptr inbounds nuw %struct.uat_esp_sa_record_t, ptr %88, i32 0, i32 6
  store ptr null, ptr %89, align 8
  %90 = load ptr, ptr %17, align 8
  %91 = getelementptr inbounds nuw %struct.uat_esp_sa_record_t, ptr %90, i32 0, i32 8
  store i8 0, ptr %91, align 4
  %92 = load i8, ptr %15, align 1
  %93 = load ptr, ptr %17, align 8
  %94 = getelementptr inbounds nuw %struct.uat_esp_sa_record_t, ptr %93, i32 0, i32 10
  store i8 %92, ptr %94, align 8
  %95 = load ptr, ptr %16, align 8
  %96 = call noalias ptr @g_strdup(ptr noundef %95)
  %97 = load ptr, ptr %17, align 8
  %98 = getelementptr inbounds nuw %struct.uat_esp_sa_record_t, ptr %97, i32 0, i32 11
  store ptr %96, ptr %98, align 8
  %99 = load ptr, ptr %17, align 8
  %100 = getelementptr inbounds nuw %struct.uat_esp_sa_record_t, ptr %99, i32 0, i32 12
  store ptr null, ptr %100, align 8
  %101 = load ptr, ptr %17, align 8
  %102 = getelementptr inbounds nuw %struct.uat_esp_sa_record_t, ptr %101, i32 0, i32 14
  store i8 32, ptr %102, align 4
  %103 = load ptr, ptr %17, align 8
  %104 = getelementptr inbounds nuw %struct.uat_esp_sa_record_t, ptr %103, i32 0, i32 15
  store i32 0, ptr %104, align 8
  call void @llvm.lifetime.start.p0(i64 8, ptr %22) #17
  store ptr null, ptr %22, align 8
  %105 = load ptr, ptr %17, align 8
  %106 = call zeroext i1 @uat_esp_sa_record_update_cb(ptr noundef %105, ptr noundef %22)
  %107 = load ptr, ptr %22, align 8
  %108 = icmp ne ptr %107, null
  br i1 %108, label %109, label %111

109:                                              ; preds = %65
  %110 = load ptr, ptr %22, align 8
  call void @g_free(ptr noundef %110)
  br label %111

111:                                              ; preds = %109, %65
  call void @llvm.lifetime.end.p0(i64 8, ptr %22) #17
  call void @llvm.lifetime.end.p0(i64 8, ptr %17) #17
  ret void
}