; Function Attrs: null_pointer_is_valid sspstrong uwtable
define void @esp_sa_record_add_from_dissector(i8 noundef zeroext %0, ptr noundef %1, ptr noundef %2, ptr noundef %3, i8 noundef zeroext %4, ptr noundef %5, i8 noundef zeroext %6, ptr noundef %7) local_unnamed_addr #0 {
  %9 = alloca ptr, align 8
  %10 = load i32, ptr @extra_esp_sa_records.0, align 8
  %11 = icmp eq i32 %10, 0
  br i1 %11, label %12, label %14

12:                                               ; preds = %8
  %13 = tail call noalias dereferenceable_or_null(1792) ptr @g_malloc(i64 noundef 1792) #19
  store ptr %13, ptr @extra_esp_sa_records.1, align 8
  %.pr = load i32, ptr @extra_esp_sa_records.0, align 8
  br label %14

14:                                               ; preds = %12, %8
  %15 = phi i32 [ %.pr, %12 ], [ %10, %8 ]
  %16 = icmp ult i32 %15, 16
  br i1 %16, label %17, label %59

17:                                               ; preds = %14
  %18 = load ptr, ptr @extra_esp_sa_records.1, align 8
  %19 = add nuw nsw i32 %15, 1
  store i32 %19, ptr @extra_esp_sa_records.0, align 8
  %20 = zext nneg i32 %15 to i64
  %21 = getelementptr %struct.uat_esp_sa_record_t, ptr %18, i64 %20
  store i8 %0, ptr %21, align 8
  %22 = tail call noalias ptr @g_strdup(ptr noundef %1)
  %23 = getelementptr inbounds nuw i8, ptr %21, i64 8
  store ptr %22, ptr %23, align 8
  %24 = tail call noalias ptr @g_strdup(ptr noundef %2)
  %25 = getelementptr inbounds nuw i8, ptr %21, i64 16
  store ptr %24, ptr %25, align 8
  %26 = tail call noalias ptr @g_strdup(ptr noundef %3)
  %27 = getelementptr inbounds nuw i8, ptr %21, i64 24
  store ptr %26, ptr %27, align 8
  %28 = getelementptr inbounds nuw i8, ptr %21, i64 32
  store i8 %4, ptr %28, align 8
  %29 = tail call noalias ptr @g_strdup(ptr noundef %5)
  %30 = getelementptr inbounds nuw i8, ptr %21, i64 40
  store ptr %29, ptr %30, align 8
  %31 = getelementptr inbounds nuw i8, ptr %21, i64 48
  store ptr null, ptr %31, align 8
  %32 = getelementptr inbounds nuw i8, ptr %21, i64 60
  store i8 0, ptr %32, align 4
  %33 = getelementptr inbounds nuw i8, ptr %21, i64 72
  store i8 %6, ptr %33, align 8
  %34 = tail call noalias ptr @g_strdup(ptr noundef %7)
  %35 = getelementptr inbounds nuw i8, ptr %21, i64 80
  store ptr %34, ptr %35, align 8
  %36 = getelementptr inbounds nuw i8, ptr %21, i64 88
  store ptr null, ptr %36, align 8
  %37 = getelementptr inbounds nuw i8, ptr %21, i64 100
  store i8 32, ptr %37, align 4
  %38 = getelementptr inbounds nuw i8, ptr %21, i64 104
  store i32 0, ptr %38, align 8
  call void @llvm.lifetime.start.p0(i64 8, ptr nonnull %9) #20
  store ptr null, ptr %9, align 8
  %39 = load ptr, ptr %31, align 8
  tail call void @g_free(ptr noundef %39)
  %40 = load i8, ptr %32, align 4, !range !6, !noundef !7
  %41 = trunc nuw i8 %40 to i1
  br i1 %41, label %42, label %45

42:                                               ; preds = %17
  %43 = getelementptr inbounds nuw i8, ptr %21, i64 64
  %44 = load ptr, ptr %43, align 8
  tail call void @gcry_cipher_close(ptr noundef %44)
  store i8 0, ptr %32, align 4
  br label %45

45:                                               ; preds = %42, %17
  %46 = load ptr, ptr %30, align 8
  %.not.i = icmp eq ptr %46, null
  br i1 %.not.i, label %49, label %47

47:                                               ; preds = %45
  %48 = call fastcc i32 @compute_ascii_key(ptr noundef nonnull %31, ptr noundef %46, ptr noundef nonnull %9)
  br label %50

49:                                               ; preds = %45
  store ptr null, ptr %31, align 8
  br label %50

50:                                               ; preds = %49, %47
  %.sink.i = phi i32 [ 0, %49 ], [ %48, %47 ]
  %51 = getelementptr inbounds nuw i8, ptr %21, i64 56
  store i32 %.sink.i, ptr %51, align 8
  %52 = load ptr, ptr %36, align 8
  tail call void @g_free(ptr noundef %52)
  %53 = load ptr, ptr %35, align 8
  %.not22.i = icmp eq ptr %53, null
  br i1 %.not22.i, label %56, label %54

54:                                               ; preds = %50
  %55 = call fastcc i32 @compute_ascii_key(ptr noundef nonnull %36, ptr noundef %53, ptr noundef nonnull %9)
  br label %uat_esp_sa_record_update_cb.exit

56:                                               ; preds = %50
  store ptr null, ptr %36, align 8
  br label %uat_esp_sa_record_update_cb.exit

uat_esp_sa_record_update_cb.exit:                 ; preds = %54, %56
  %.sink23.i = phi i32 [ 0, %56 ], [ %55, %54 ]
  %57 = getelementptr inbounds nuw i8, ptr %21, i64 96
  store i32 %.sink23.i, ptr %57, align 8
  %58 = load ptr, ptr %9, align 8
  %.not = icmp eq ptr %58, null
  br i1 %.not, label %61, label %60

59:                                               ; preds = %14
  tail call void (ptr, ...) @proto_report_dissector_bug(ptr noundef nonnull @.str, i32 noundef 16) #21
  unreachable

60:                                               ; preds = %uat_esp_sa_record_update_cb.exit
  tail call void @g_free(ptr noundef nonnull %58)
  br label %61

61:                                               ; preds = %60, %uat_esp_sa_record_update_cb.exit
  call void @llvm.lifetime.end.p0(i64 8, ptr nonnull %9) #20
  ret void
}